; Function Attrs: mustprogress nounwind uwtable
define hidden void @_ZN4llvh6detail13DoubleAPFloatC2ERKS1_(ptr noundef nonnull writeonly align 8 captures(none) dereferenceable(16) initializes((0, 16)) %this, ptr noundef nonnull readonly align 8 captures(none) dereferenceable(16) %RHS) unnamed_addr #2 align 2 {
entry:
  %0 = load ptr, ptr %RHS, align 8
  store ptr %0, ptr %this, align 8
  %Floats3 = getelementptr inbounds nuw i8, ptr %RHS, i64 8
  %1 = load ptr, ptr %Floats3, align 8
  %cmp.i.not = icmp eq ptr %1, null
  br i1 %cmp.i.not, label %cond.end, label %cond.true

cond.true:                                        ; preds = %entry
  %call4 = tail call noalias noundef nonnull dereferenceable(72) ptr @_Znam(i64 noundef 72) #24
  store i64 2, ptr %call4, align 16
  %2 = getelementptr inbounds nuw i8, ptr %call4, i64 8
  %U.i = getelementptr inbounds nuw i8, ptr %call4, i64 16
  %U2.i = getelementptr inbounds nuw i8, ptr %1, i64 8
  tail call void @_ZN4llvh7APFloat7StorageC2ERKS1_(ptr noundef nonnull align 8 dereferenceable(24) %U.i, ptr noundef nonnull align 8 dereferenceable(24) %U2.i)
  %3 = load ptr, ptr %Floats3, align 8
  %U.i4 = getelementptr inbounds nuw i8, ptr %call4, i64 48
  %U2.i5 = getelementptr inbounds nuw i8, ptr %3, i64 40
  tail call void @_ZN4llvh7APFloat7StorageC2ERKS1_(ptr noundef nonnull align 8 dereferenceable(24) %U.i4, ptr noundef nonnull align 8 dereferenceable(24) %U2.i5)
  br label %cond.end

cond.end:                                         ; preds = %entry, %cond.true
  %cond = phi ptr [ %2, %cond.true ], [ null, %entry ]
  %Floats = getelementptr inbounds nuw i8, ptr %this, i64 8
  store ptr %cond, ptr %Floats, align 8
  ret void
}